target datalayout = "e-m:e-p270:32:32-p271:32:32-p272:64:64-i64:64-i128:128-f80:128-n8:16:32:64-S128"
target triple = "x86_64-pc-linux-gnu"

@hf_pfcp_bbf_ctag_range_start = internal global i32 -1, align 4
@hf_pfcp_bbf_ctag_range_end = internal global i32 -1, align 4
@dissect_pfcp_enterprise_bbf_ctag_range.start_crumbs = internal constant [3 x { i32, i8, [3 x i8] }] [{ i32, i8, [3 x i8] } { i32 0, i8 8, [3 x i8] zeroinitializer }, { i32, i8, [3 x i8] } { i32 12, i8 4, [3 x i8] zeroinitializer }, { i32, i8, [3 x i8] } zeroinitializer], align 16
@dissect_pfcp_enterprise_bbf_ctag_range.end_crumbs = internal constant [3 x { i32, i8, [3 x i8] }] [{ i32, i8, [3 x i8] } { i32 0, i8 4, [3 x i8] zeroinitializer }, { i32, i8, [3 x i8] } { i32 8, i8 8, [3 x i8] zeroinitializer }, { i32, i8, [3 x i8] } zeroinitializer], align 16
@.str.2723 = private unnamed_addr constant [11 x i8] c" : %lu-%lu\00", align 1

; Function Attrs: null_pointer_is_valid sspstrong uwtable
define internal i32 @dissect_pfcp_enterprise_bbf_ctag_range(ptr noundef %0, ptr noundef %1, ptr noundef %2, ptr noundef %3) #0 {
  %5 = alloca ptr, align 8
  %6 = alloca ptr, align 8
  %7 = alloca ptr, align 8
  %8 = alloca ptr, align 8
  %9 = alloca i64, align 8
  %10 = alloca i64, align 8
  store ptr %0, ptr %5, align 8
  store ptr %1, ptr %6, align 8
  store ptr %2, ptr %7, align 8
  store ptr %3, ptr %8, align 8
  call void @llvm.lifetime.start.p0(i64 8, ptr %9) #13
  call void @llvm.lifetime.start.p0(i64 8, ptr %10) #13
  %11 = load ptr, ptr %7, align 8
  %12 = load i32, ptr @hf_pfcp_bbf_ctag_range_start, align 4
  %13 = load ptr, ptr %5, align 8
  %14 = call ptr @proto_tree_add_split_bits_item_ret_val(ptr noundef %11, i32 noundef %12, ptr noundef %13, i32 noundef 0, ptr noundef @dissect_pfcp_enterprise_bbf_ctag_range.start_crumbs, ptr noundef %9)
  %15 = load ptr, ptr %7, align 8
  %16 = load i32, ptr @hf_pfcp_bbf_ctag_range_end, align 4
  %17 = load ptr, ptr %5, align 8
  %18 = call ptr @proto_tree_add_split_bits_item_ret_val(ptr noundef %15, i32 noundef %16, ptr noundef %17, i32 noundef 8, ptr noundef @dissect_pfcp_enterprise_bbf_ctag_range.end_crumbs, ptr noundef %10)
  %19 = load ptr, ptr %7, align 8
  %20 = call ptr @proto_tree_get_parent(ptr noundef %19)
  %21 = load i64, ptr %9, align 8
  %22 = load i64, ptr %10, align 8
  call void (ptr, ptr, ...) @proto_item_append_text(ptr noundef %20, ptr noundef @.str.2723, i64 noundef %21, i64 noundef %22)
  call void @llvm.lifetime.end.p0(i64 8, ptr %10) #13
  call void @llvm.lifetime.end.p0(i64 8, ptr %9) #13
  ret i32 3
}