; Function Attrs: null_pointer_is_valid sspstrong uwtable
define internal noundef i32 @dissect_pfcp_enterprise_bbf_ctag_range(ptr noundef %0, ptr readnone captures(none) %1, ptr noundef %2, ptr readnone captures(none) %3) #0 {
  %5 = alloca i64, align 8
  %6 = alloca i64, align 8
  call void @llvm.lifetime.start.p0(i64 8, ptr nonnull %5) #15
  call void @llvm.lifetime.start.p0(i64 8, ptr nonnull %6) #15
  %7 = load i32, ptr @hf_pfcp_bbf_ctag_range_start, align 4
  %8 = call ptr @proto_tree_add_split_bits_item_ret_val(ptr noundef %2, i32 noundef %7, ptr noundef %0, i32 noundef 0, ptr noundef nonnull @dissect_pfcp_enterprise_bbf_ctag_range.start_crumbs, ptr noundef nonnull %5)
  %9 = load i32, ptr @hf_pfcp_bbf_ctag_range_end, align 4
  %10 = call ptr @proto_tree_add_split_bits_item_ret_val(ptr noundef %2, i32 noundef %9, ptr noundef %0, i32 noundef 8, ptr noundef nonnull @dissect_pfcp_enterprise_bbf_ctag_range.end_crumbs, ptr noundef nonnull %6)
  %11 = call ptr @proto_tree_get_parent(ptr noundef %2)
  %12 = load i64, ptr %5, align 8
  %13 = load i64, ptr %6, align 8
  call void (ptr, ptr, ...) @proto_item_append_text(ptr noundef %11, ptr noundef nonnull @.str.2723, i64 noundef %12, i64 noundef %13)
  call void @llvm.lifetime.end.p0(i64 8, ptr nonnull %6) #15
  call void @llvm.lifetime.end.p0(i64 8, ptr nonnull %5) #15
  ret i32 3
}